target datalayout = "e-m:e-p270:32:32-p271:32:32-p272:64:64-i64:64-i128:128-f80:128-n8:16:32:64-S128"
target triple = "x86_64-pc-linux-gnu"

%struct.BackendGlobalData = type <{ ptr, ptr, i8, i8, i8, i8, i8, i8, i8, i8, i8, [3 x i8], i32, ptr, ptr, ptr, ptr, ptr, ptr, ptr, ptr, ptr, ptr, ptr, ptr, ptr, i32, %struct.jvmtiCapabilities, i8, [3 x i8], %struct.jvmtiEventCallbacks, ptr, ptr, ptr, ptr, ptr, ptr, ptr, i32, [4 x i8], ptr, i64, i32, [4 x i8], ptr, i32, i32, i8, i8, [6 x i8] }>
%struct.jvmtiCapabilities = type { i64, i64 }
%struct.jvmtiEventCallbacks = type { ptr, ptr, ptr, ptr, ptr, ptr, ptr, ptr, ptr, ptr, ptr, ptr, ptr, ptr, ptr, ptr, ptr, ptr, ptr, ptr, ptr, ptr, ptr, ptr, ptr, ptr, ptr, ptr, ptr, ptr, ptr, ptr, ptr, ptr, ptr, ptr, ptr, ptr, ptr }

@stderr = external global ptr, align 8
@.str = private unnamed_addr constant [17 x i8] c"JDWP exit error \00", align 1
@.str.1 = private unnamed_addr constant [2 x i8] c"\0A\00", align 1
@.str.2 = private unnamed_addr constant [19 x i8] c"%s(%d): %s [%s:%d]\00", align 1
@.str.3 = private unnamed_addr constant [21 x i8] c"getting step request\00", align 1
@.str.4 = private unnamed_addr constant [54 x i8] c"src/jdk.jdwp.agent/share/native/libjdwp/stepControl.c\00", align 1
@gdata = external global ptr, align 8
@.str.5 = private unnamed_addr constant [5 x i8] c"STEP\00", align 1
@stepLock = internal global ptr null, align 8
@.str.27 = private unnamed_addr constant [36 x i8] c"stepControl_resetRequest: thread=%p\00", align 1
@.str.28 = private unnamed_addr constant [24 x i8] c"initializing step state\00", align 1

; Function Attrs: nounwind uwtable
define hidden void @stepControl_unlock() #0 {
  %1 = load ptr, ptr @stepLock, align 8
  call void @debugMonitorExit(ptr noundef %1)
  ret void
}

; Function Attrs: nounwind uwtable
define hidden void @stepControl_lock() #0 {
  %1 = load ptr, ptr @stepLock, align 8
  call void @debugMonitorEnter(ptr noundef %1)
  ret void
}

; Function Attrs: nounwind uwtable
define hidden void @stepControl_resetRequest(ptr noundef %0) #0 {
  %2 = alloca ptr, align 8
  %3 = alloca ptr, align 8
  %4 = alloca i32, align 4
  %5 = alloca ptr, align 8
  store ptr %0, ptr %2, align 8
  %6 = load ptr, ptr @gdata, align 8
  %7 = getelementptr inbounds %struct.BackendGlobalData, ptr %6, i32 0, i32 38
  %8 = load i32, ptr %7, align 8
  %9 = and i32 %8, 16
  %10 = icmp ne i32 %9, 0
  br i1 %10, label %11, label %13

11:                                               ; preds = %1
  call void @log_message_begin(ptr noundef @.str.5, ptr noundef @.str.4, i32 noundef 715)
  %12 = load ptr, ptr %2, align 8
  call void (ptr, ...) @log_message_end(ptr noundef @.str.27, ptr noundef %12)
  br label %14

13:                                               ; preds = %1
  br label %14

14:                                               ; preds = %13, %11
  call void @stepControl_lock()
  %15 = load ptr, ptr %2, align 8
  %16 = call ptr @threadControl_getStepRequest(ptr noundef %15)
  store ptr %16, ptr %3, align 8
  %17 = load ptr, ptr %3, align 8
  %18 = icmp ne ptr %17, null
  br i1 %18, label %19, label %34

19:                                               ; preds = %14
  %20 = call ptr @getEnv()
  store ptr %20, ptr %5, align 8
  %21 = load ptr, ptr %5, align 8
  %22 = load ptr, ptr %2, align 8
  %23 = load ptr, ptr %3, align 8
  %24 = call i32 @initState(ptr noundef %21, ptr noundef %22, ptr noundef %23)
  store i32 %24, ptr %4, align 4
  %25 = load i32, ptr %4, align 4
  %26 = icmp ne i32 %25, 0
  br i1 %26, label %27, label %33

27:                                               ; preds = %19
  %28 = load ptr, ptr @stderr, align 8
  %29 = load i32, ptr %4, align 4
  %30 = call ptr @jvmtiErrorText(i32 noundef %29)
  %31 = load i32, ptr %4, align 4
  call void (ptr, ptr, ptr, ptr, ...) @print_message(ptr noundef %28, ptr noundef @.str, ptr noundef @.str.1, ptr noundef @.str.2, ptr noundef %30, i32 noundef %31, ptr noundef @.str.28, ptr noundef @.str.4, i32 noundef 726)
  %32 = load i32, ptr %4, align 4
  call void @debugInit_exit(i32 noundef %32, ptr noundef @.str.28)
  br label %33

33:                                               ; preds = %27, %19
  br label %37

34:                                               ; preds = %14
  %35 = load ptr, ptr @stderr, align 8
  %36 = call ptr @jvmtiErrorText(i32 noundef 203)
  call void (ptr, ptr, ptr, ptr, ...) @print_message(ptr noundef %35, ptr noundef @.str, ptr noundef @.str.1, ptr noundef @.str.2, ptr noundef %36, i32 noundef 203, ptr noundef @.str.3, ptr noundef @.str.4, i32 noundef 729)
  call void @debugInit_exit(i32 noundef 203, ptr noundef @.str.3)
  br label %37

37:                                               ; preds = %34, %33
  call void @stepControl_unlock()
  ret void
}