; Function Attrs: nounwind uwtable
define hidden void @stepControl_resetRequest(ptr noundef %0) local_unnamed_addr #0 {
  %2 = load ptr, ptr @gdata, align 8
  %3 = getelementptr inbounds i8, ptr %2, i64 528
  %4 = load i32, ptr %3, align 8
  %5 = and i32 %4, 16
  %.not = icmp eq i32 %5, 0
  br i1 %.not, label %7, label %6

6:                                                ; preds = %1
  tail call void @log_message_begin(ptr noundef nonnull @.str.5, ptr noundef nonnull @.str.4, i32 noundef 715) #4
  tail call void (ptr, ...) @log_message_end(ptr noundef nonnull @.str.27, ptr noundef %0) #4
  br label %7

7:                                                ; preds = %1, %6
  %8 = load ptr, ptr @stepLock, align 8
  tail call void @debugMonitorEnter(ptr noundef %8) #4
  %9 = tail call ptr @threadControl_getStepRequest(ptr noundef %0) #4
  %.not10 = icmp eq ptr %9, null
  br i1 %.not10, label %16, label %10

10:                                               ; preds = %7
  %11 = tail call ptr @getEnv() #4
  %12 = tail call fastcc i32 @initState(ptr noundef %11, ptr noundef %0, ptr noundef nonnull %9)
  %.not11 = icmp eq i32 %12, 0
  br i1 %.not11, label %19, label %13

13:                                               ; preds = %10
  %14 = load ptr, ptr @stderr, align 8
  %15 = tail call ptr @jvmtiErrorText(i32 noundef %12) #4
  tail call void (ptr, ptr, ptr, ptr, ...) @print_message(ptr noundef %14, ptr noundef nonnull @.str, ptr noundef nonnull @.str.1, ptr noundef nonnull @.str.2, ptr noundef %15, i32 noundef %12, ptr noundef nonnull @.str.28, ptr noundef nonnull @.str.4, i32 noundef 726) #4
  tail call void @debugInit_exit(i32 noundef %12, ptr noundef nonnull @.str.28) #4
  br label %19

16:                                               ; preds = %7
  %17 = load ptr, ptr @stderr, align 8
  %18 = tail call ptr @jvmtiErrorText(i32 noundef 203) #4
  tail call void (ptr, ptr, ptr, ptr, ...) @print_message(ptr noundef %17, ptr noundef nonnull @.str, ptr noundef nonnull @.str.1, ptr noundef nonnull @.str.2, ptr noundef %18, i32 noundef 203, ptr noundef nonnull @.str.3, ptr noundef nonnull @.str.4, i32 noundef 729) #4
  tail call void @debugInit_exit(i32 noundef 203, ptr noundef nonnull @.str.3) #4
  br label %19

19:                                               ; preds = %10, %13, %16
  %20 = load ptr, ptr @stepLock, align 8
  tail call void @debugMonitorExit(ptr noundef %20) #4
  ret void
}